	.cpu cortex-m3
	.eabi_attribute 20, 1
	.eabi_attribute 21, 1
	.eabi_attribute 23, 3
	.eabi_attribute 24, 1
	.eabi_attribute 25, 1
	.eabi_attribute 26, 1
	.eabi_attribute 30, 6
	.eabi_attribute 34, 1
	.eabi_attribute 18, 4
	.file	"bsp_io_out.c"
	.text
.Ltext0:
	.section	.data.bsp_do_map,"aw"
	.align	2
	.type	bsp_do_map, %object
	.size	bsp_do_map, 24
bsp_do_map:
	.word	1073810432
	.short	32
	.byte	0
	.byte	0
	.word	1073810432
	.short	1
	.byte	0
	.byte	0
	.word	1073810432
	.short	2
	.byte	0
	.byte	0
	.section	.text.bsp_io_out_config,"ax",%progbits
	.align	1
	.syntax unified
	.thumb
	.thumb_func
	.fpu softvfp
	.type	bsp_io_out_config, %function
bsp_io_out_config:
.LFB71:
	.file 1 "E:\\1_HX_DOC\\gitproject\\stm32f1xx_st\\firmware\\Src\\drivers\\bsp_io_out.c"
	.loc 1 30 1
	@ args = 0, pretend = 0, frame = 24
	@ frame_needed = 0, uses_anonymous_args = 0
	push	{lr}
.LCFI0:
	sub	sp, sp, #28
.LCFI1:
	.loc 1 31 22
	add	r3, sp, #4
	movs	r2, #0
	str	r2, [r3]
	str	r2, [r3, #4]
	str	r2, [r3, #8]
	str	r2, [r3, #12]
	.loc 1 32 38
	movs	r3, #3
	str	r3, [sp, #16]
.LBB2:
	.loc 1 33 19
	movs	r3, #0
	strh	r3, [sp, #22]	@ movhi
	.loc 1 33 5
	b	.L2
.L5:
	.loc 1 35 26
	ldrh	r3, [sp, #22]
	ldr	r2, .L6
	lsls	r3, r3, #3
	add	r3, r3, r2
	ldrb	r3, [r3, #7]	@ zero_extendqisi2
	.loc 1 35 12
	cmp	r3, #0
	bne	.L3
	.loc 1 37 34
	movs	r3, #1
	str	r3, [sp, #12]
	.loc 1 38 34
	movs	r3, #1
	str	r3, [sp, #8]
	b	.L4
.L3:
	.loc 1 42 34
	movs	r3, #1
	str	r3, [sp, #12]
	.loc 1 43 34
	movs	r3, #17
	str	r3, [sp, #8]
.L4:
	.loc 1 46 44 discriminator 2
	ldrh	r3, [sp, #22]
	ldr	r2, .L6
	lsls	r3, r3, #3
	add	r3, r3, r2
	ldrh	r3, [r3, #4]
	.loc 1 46 29 discriminator 2
	str	r3, [sp, #4]
	.loc 1 47 9 discriminator 2
	ldrh	r3, [sp, #22]
	ldr	r2, .L6
	ldr	r3, [r2, r3, lsl #3]
	add	r2, sp, #4
	mov	r1, r2
	mov	r0, r3
	bl	HAL_GPIO_Init
	.loc 1 33 54 discriminator 2
	ldrh	r3, [sp, #22]
	adds	r3, r3, #1
	strh	r3, [sp, #22]	@ movhi
.L2:
	.loc 1 33 5 discriminator 1
	ldrh	r3, [sp, #22]
	cmp	r3, #2
	bls	.L5
.LBE2:
	.loc 1 50 1
	nop
	nop
	add	sp, sp, #28
.LCFI2:
	@ sp needed
	ldr	pc, [sp], #4
.L7:
	.align	2
.L6:
	.word	bsp_do_map
.LFE71:
	.size	bsp_io_out_config, .-bsp_io_out_config
	.section	.text.bsp_write_do,"ax",%progbits
	.align	1
	.global	bsp_write_do
	.syntax unified
	.thumb
	.thumb_func
	.fpu softvfp
	.type	bsp_write_do, %function
bsp_write_do:
.LFB72:
	.loc 1 53 1
	@ args = 0, pretend = 0, frame = 16
	@ frame_needed = 0, uses_anonymous_args = 0
	push	{lr}
.LCFI3:
	sub	sp, sp, #20
.LCFI4:
	mov	r3, r0
	mov	r2, r1
	strb	r3, [sp, #7]
	mov	r3, r2
	strb	r3, [sp, #6]
	.loc 1 56 8
	ldrb	r3, [sp, #7]	@ zero_extendqisi2
	cmp	r3, #2
	bhi	.L10
	.loc 1 58 32
	ldrb	r3, [sp, #7]	@ zero_extendqisi2
	lsls	r3, r3, #3
	.loc 1 58 19
	ldr	r2, .L11
	add	r3, r3, r2
	str	r3, [sp, #12]
	.loc 1 59 19
	ldr	r3, [sp, #12]
	ldrb	r2, [sp, #6]
	strb	r2, [r3, #6]
	.loc 1 60 9
	ldr	r3, [sp, #12]
	ldr	r0, [r3]
	ldr	r3, [sp, #12]
	ldrh	r3, [r3, #4]
	ldrb	r2, [sp, #6]	@ zero_extendqisi2
	mov	r1, r3
	bl	HAL_GPIO_WritePin
.L10:
	.loc 1 63 1
	nop
	add	sp, sp, #20
.LCFI5:
	@ sp needed
	ldr	pc, [sp], #4
.L12:
	.align	2
.L11:
	.word	bsp_do_map
.LFE72:
	.size	bsp_write_do, .-bsp_write_do
	.section	.text.bsp_write_do_toggle,"ax",%progbits
	.align	1
	.global	bsp_write_do_toggle
	.syntax unified
	.thumb
	.thumb_func
	.fpu softvfp
	.type	bsp_write_do_toggle, %function
bsp_write_do_toggle:
.LFB73:
	.loc 1 66 1
	@ args = 0, pretend = 0, frame = 16
	@ frame_needed = 0, uses_anonymous_args = 0
	push	{lr}
.LCFI6:
	sub	sp, sp, #20
.LCFI7:
	mov	r3, r0
	strb	r3, [sp, #7]
	.loc 1 69 8
	ldrb	r3, [sp, #7]	@ zero_extendqisi2
	cmp	r3, #2
	bhi	.L13
	.loc 1 71 32
	ldrb	r3, [sp, #7]	@ zero_extendqisi2
	lsls	r3, r3, #3
	.loc 1 71 19
	ldr	r2, .L15
	add	r3, r3, r2
	str	r3, [sp, #12]
	.loc 1 72 24
	ldr	r3, [sp, #12]
	ldrb	r3, [r3, #6]	@ zero_extendqisi2
	.loc 1 72 21
	cmp	r3, #0
	ite	eq
	moveq	r3, #1
	movne	r3, #0
	uxtb	r3, r3
	mov	r2, r3
	.loc 1 72 19
	ldr	r3, [sp, #12]
	strb	r2, [r3, #6]
	.loc 1 73 9
	ldr	r3, [sp, #12]
	ldr	r0, [r3]
	ldr	r3, [sp, #12]
	ldrh	r1, [r3, #4]
	.loc 1 73 63
	ldr	r3, [sp, #12]
	ldrb	r3, [r3, #6]	@ zero_extendqisi2
	.loc 1 73 9
	mov	r2, r3
	bl	HAL_GPIO_WritePin
	.loc 1 74 9
	nop
.L13:
	.loc 1 76 1
	add	sp, sp, #20
.LCFI8:
	@ sp needed
	ldr	pc, [sp], #4
.L16:
	.align	2
.L15:
	.word	bsp_do_map
.LFE73:
	.size	bsp_write_do_toggle, .-bsp_write_do_toggle
	.section	.text.bsp_read_do,"ax",%progbits
	.align	1
	.global	bsp_read_do
	.syntax unified
	.thumb
	.thumb_func
	.fpu softvfp
	.type	bsp_read_do, %function
bsp_read_do:
.LFB74:
	.loc 1 79 1
	@ args = 0, pretend = 0, frame = 16
	@ frame_needed = 0, uses_anonymous_args = 0
	@ link register save eliminated.
	sub	sp, sp, #16
.LCFI9:
	mov	r3, r0
	strb	r3, [sp, #7]
	.loc 1 82 8
	ldrb	r3, [sp, #7]	@ zero_extendqisi2
	cmp	r3, #2
	bhi	.L18
	.loc 1 84 25
	ldrb	r3, [sp, #7]	@ zero_extendqisi2
	lsls	r3, r3, #3
	.loc 1 84 12
	ldr	r2, .L20
	add	r3, r3, r2
	str	r3, [sp, #12]
	.loc 1 85 18
	ldr	r3, [sp, #12]
	ldrb	r3, [r3, #6]	@ zero_extendqisi2
	b	.L19
.L18:
	.loc 1 87 12
	movs	r3, #0
.L19:
	.loc 1 88 1
	mov	r0, r3
	add	sp, sp, #16
.LCFI10:
	@ sp needed
	bx	lr
.L21:
	.align	2
.L20:
	.word	bsp_do_map
.LFE74:
	.size	bsp_read_do, .-bsp_read_do
	.section	.text.bsp_io_out_init,"ax",%progbits
	.align	1
	.global	bsp_io_out_init
	.syntax unified
	.thumb
	.thumb_func
	.fpu softvfp
	.type	bsp_io_out_init, %function
bsp_io_out_init:
.LFB75:
	.loc 1 91 1
	@ args = 0, pretend = 0, frame = 0
	@ frame_needed = 0, uses_anonymous_args = 0
	push	{r3, lr}
.LCFI11:
	.loc 1 92 5
	bl	bsp_io_out_config
	.loc 1 93 1
	nop
	pop	{r3, pc}
.LFE75:
	.size	bsp_io_out_init, .-bsp_io_out_init
	.section	.debug_frame,"",%progbits
.Lframe0:
	.4byte	.LECIE0-.LSCIE0
.LSCIE0:
	.4byte	0xffffffff
	.byte	0x3
	.ascii	"\000"
	.uleb128 0x1
	.sleb128 -4
	.uleb128 0xe
	.byte	0xc
	.uleb128 0xd
	.uleb128 0
	.align	2
.LECIE0:
.LSFDE0:
	.4byte	.LEFDE0-.LASFDE0
.LASFDE0:
	.4byte	.Lframe0
	.4byte	.LFB71
	.4byte	.LFE71-.LFB71
	.byte	0x4
	.4byte	.LCFI0-.LFB71
	.byte	0xe
	.uleb128 0x4
	.byte	0x8e
	.uleb128 0x1
	.byte	0x4
	.4byte	.LCFI1-.LCFI0
	.byte	0xe
	.uleb128 0x20
	.byte	0x4
	.4byte	.LCFI2-.LCFI1
	.byte	0xe
	.uleb128 0x4
	.align	2
.LEFDE0:
.LSFDE2:
	.4byte	.LEFDE2-.LASFDE2
.LASFDE2:
	.4byte	.Lframe0
	.4byte	.LFB72
	.4byte	.LFE72-.LFB72
	.byte	0x4
	.4byte	.LCFI3-.LFB72
	.byte	0xe
	.uleb128 0x4
	.byte	0x8e
	.uleb128 0x1
	.byte	0x4
	.4byte	.LCFI4-.LCFI3
	.byte	0xe
	.uleb128 0x18
	.byte	0x4
	.4byte	.LCFI5-.LCFI4
	.byte	0xe
	.uleb128 0x4
	.align	2
.LEFDE2:
.LSFDE4:
	.4byte	.LEFDE4-.LASFDE4
.LASFDE4:
	.4byte	.Lframe0
	.4byte	.LFB73
	.4byte	.LFE73-.LFB73
	.byte	0x4
	.4byte	.LCFI6-.LFB73
	.byte	0xe
	.uleb128 0x4
	.byte	0x8e
	.uleb128 0x1
	.byte	0x4
	.4byte	.LCFI7-.LCFI6
	.byte	0xe
	.uleb128 0x18
	.byte	0x4
	.4byte	.LCFI8-.LCFI7
	.byte	0xe
	.uleb128 0x4
	.align	2
.LEFDE4:
.LSFDE6:
	.4byte	.LEFDE6-.LASFDE6
.LASFDE6:
	.4byte	.Lframe0
	.4byte	.LFB74
	.4byte	.LFE74-.LFB74
	.byte	0x4
	.4byte	.LCFI9-.LFB74
	.byte	0xe
	.uleb128 0x10
	.byte	0x4
	.4byte	.LCFI10-.LCFI9
	.byte	0xe
	.uleb128 0
	.align	2
.LEFDE6:
.LSFDE8:
	.4byte	.LEFDE8-.LASFDE8
.LASFDE8:
	.4byte	.Lframe0
	.4byte	.LFB75
	.4byte	.LFE75-.LFB75
	.byte	0x4
	.4byte	.LCFI11-.LFB75
	.byte	0xe
	.uleb128 0x8
	.byte	0x83
	.uleb128 0x2
	.byte	0x8e
	.uleb128 0x1
	.align	2
.LEFDE8:
	.text
.Letext0:
	.file 2 "C:/Program Files/SEGGER/SEGGER Embedded Studio for ARM 5.62/segger-rtl/include/stdint.h"
	.file 3 "../Libraries/cmsis/Device/ST/STM32F1xx/Include/stm32f103xe.h"
	.file 4 "../Libraries/stm32f1xx_hal_driver/Inc/stm32f1xx_hal_gpio.h"