	.cpu cortex-m3
	.arch armv7-m
	.fpu softvfp
	.eabi_attribute 20, 1
	.eabi_attribute 21, 1
	.eabi_attribute 23, 3
	.eabi_attribute 24, 1
	.eabi_attribute 25, 1
	.eabi_attribute 26, 1
	.eabi_attribute 30, 6
	.eabi_attribute 34, 1
	.eabi_attribute 38, 1
	.eabi_attribute 18, 4
	.file	"fal_flash_stm32f1_port.c"
	.text
.Ltext0:
	.section	.text.init,"ax",%progbits
	.align	1
	.syntax unified
	.thumb
	.thumb_func
	.type	init, %function
init:
.LFB71:
	.file 1 "D:\\1995work\\studyMCU\\stm32f1xx_st\\firmware\\Src\\flashdb\\fal\\fal_flash_stm32f1_port.c"
	.loc 1 41 1
	@ args = 0, pretend = 0, frame = 0
	@ frame_needed = 0, uses_anonymous_args = 0
	@ link register save eliminated.
	.loc 1 43 12
	movs	r3, #1
	.loc 1 44 1
	mov	r0, r3
	bx	lr
.LFE71:
	.size	init, .-init
	.section	.bss.ef_err_port_cnt,"aw",%nobits
	.align	2
	.type	ef_err_port_cnt, %object
	.size	ef_err_port_cnt, 4
ef_err_port_cnt:
	.space	4
	.global	on_ic_read_cnt
	.section	.bss.on_ic_read_cnt,"aw",%nobits
	.align	2
	.type	on_ic_read_cnt, %object
	.size	on_ic_read_cnt, 4
on_ic_read_cnt:
	.space	4
	.global	on_ic_write_cnt
	.section	.bss.on_ic_write_cnt,"aw",%nobits
	.align	2
	.type	on_ic_write_cnt, %object
	.size	on_ic_write_cnt, 4
on_ic_write_cnt:
	.space	4
	.section	.text.feed_dog,"ax",%progbits
	.align	1
	.global	feed_dog
	.syntax unified
	.thumb
	.thumb_func
	.type	feed_dog, %function
feed_dog:
.LFB72:
	.loc 1 52 1
	@ args = 0, pretend = 0, frame = 0
	@ frame_needed = 0, uses_anonymous_args = 0
	@ link register save eliminated.
	.loc 1 54 1
	nop
	bx	lr
.LFE72:
	.size	feed_dog, .-feed_dog
	.section	.text.read,"ax",%progbits
	.align	1
	.syntax unified
	.thumb
	.thumb_func
	.type	read, %function
read:
.LFB73:
	.loc 1 57 1
	@ args = 0, pretend = 0, frame = 24
	@ frame_needed = 0, uses_anonymous_args = 0
	@ link register save eliminated.
	sub	sp, sp, #24
.LCFI0:
	str	r0, [sp, #12]
	str	r1, [sp, #8]
	str	r2, [sp, #4]
	.loc 1 60 39
	mov	r2, #134217728
	.loc 1 60 45
	ldr	r3, [sp, #12]
	.loc 1 60 14
	add	r3, r3, r2
	str	r3, [sp, #16]
	.loc 1 62 13
	ldr	r3, [sp, #16]
	and	r3, r3, #3
	.loc 1 62 7
	cmp	r3, #0
	beq	.L5
	.loc 1 63 24
	ldr	r3, .L9
	ldr	r3, [r3]
	adds	r3, r3, #1
	ldr	r2, .L9
	str	r3, [r2]
.L5:
	.loc 1 65 12
	movs	r3, #0
	str	r3, [sp, #20]
	.loc 1 65 5
	b	.L6
.L7:
	.loc 1 67 17 discriminator 3
	ldr	r3, [sp, #16]
	.loc 1 67 16 discriminator 3
	ldrb	r2, [r3]	@ zero_extendqisi2
	.loc 1 67 14 discriminator 3
	ldr	r3, [sp, #8]
	strb	r2, [r3]
	.loc 1 65 28 discriminator 3
	ldr	r3, [sp, #20]
	adds	r3, r3, #1
	str	r3, [sp, #20]
	.loc 1 65 36 discriminator 3
	ldr	r3, [sp, #16]
	adds	r3, r3, #1
	str	r3, [sp, #16]
	.loc 1 65 43 discriminator 3
	ldr	r3, [sp, #8]
	adds	r3, r3, #1
	str	r3, [sp, #8]
.L6:
	.loc 1 65 5 discriminator 1
	ldr	r2, [sp, #20]
	ldr	r3, [sp, #4]
	cmp	r2, r3
	bcc	.L7
	.loc 1 69 19
	ldr	r3, .L9+4
	ldr	r3, [r3]
	adds	r3, r3, #1
	ldr	r2, .L9+4
	str	r3, [r2]
	.loc 1 70 12
	ldr	r3, [sp, #4]
	.loc 1 71 1
	mov	r0, r3
	add	sp, sp, #24
.LCFI1:
	@ sp needed
	bx	lr
.L10:
	.align	2
.L9:
	.word	ef_err_port_cnt
	.word	on_ic_read_cnt
.LFE73:
	.size	read, .-read
	.section	.text.write,"ax",%progbits
	.align	1
	.syntax unified
	.thumb
	.thumb_func
	.type	write, %function
write:
.LFB74:
	.loc 1 75 1
	@ args = 0, pretend = 0, frame = 32
	@ frame_needed = 0, uses_anonymous_args = 0
	push	{r4, r5, lr}
.LCFI2:
	sub	sp, sp, #36
.LCFI3:
	str	r0, [sp, #12]
	str	r1, [sp, #8]
	str	r2, [sp, #4]
	.loc 1 77 39
	mov	r2, #134217728
	.loc 1 77 45
	ldr	r3, [sp, #12]
	.loc 1 77 14
	add	r3, r3, r2
	str	r3, [sp, #24]
	.loc 1 82 12
	ldr	r3, [sp, #24]
	and	r3, r3, #3
	.loc 1 82 7
	cmp	r3, #0
	beq	.L12
	.loc 1 83 24
	ldr	r3, .L18
	ldr	r3, [r3]
	adds	r3, r3, #1
	ldr	r2, .L18
	str	r3, [r2]
.L12:
	.loc 1 90 5
	bl	HAL_FLASH_Unlock
	.loc 1 91 12
	movs	r3, #0
	str	r3, [sp, #28]
	.loc 1 91 5
	b	.L13
.L16:
	ldr	r3, [sp, #8]
	ldr	r3, [r3]	@ unaligned
	.loc 1 92 9
	str	r3, [sp, #16]
	.loc 1 93 9
	ldr	r3, [sp, #16]
	movs	r2, #0
	mov	r4, r3
	mov	r5, r2
	mov	r2, r4
	mov	r3, r5
	ldr	r1, [sp, #24]
	movs	r0, #2
	bl	HAL_FLASH_Program
	.loc 1 94 22
	ldr	r3, [sp, #24]
	.loc 1 94 19
	ldr	r3, [r3]
	str	r3, [sp, #20]
	.loc 1 96 23
	ldr	r3, [sp, #16]
	.loc 1 96 12
	ldr	r2, [sp, #20]
	cmp	r2, r3
	beq	.L14
	.loc 1 97 13
	bl	HAL_FLASH_Lock
	.loc 1 98 20
	mov	r3, #-1
	b	.L17
.L14:
	.loc 1 102 12 discriminator 2
	bl	feed_dog
	.loc 1 91 29 discriminator 2
	ldr	r3, [sp, #28]
	adds	r3, r3, #4
	str	r3, [sp, #28]
	.loc 1 91 38 discriminator 2
	ldr	r3, [sp, #8]
	adds	r3, r3, #4
	str	r3, [sp, #8]
	.loc 1 91 48 discriminator 2
	ldr	r3, [sp, #24]
	adds	r3, r3, #4
	str	r3, [sp, #24]
.L13:
	.loc 1 91 5 discriminator 1
	ldr	r2, [sp, #28]
	ldr	r3, [sp, #4]
	cmp	r2, r3
	bcc	.L16
	.loc 1 105 5
	bl	HAL_FLASH_Lock
	.loc 1 107 20
	ldr	r3, .L18+4
	ldr	r3, [r3]
	adds	r3, r3, #1
	ldr	r2, .L18+4
	str	r3, [r2]
	.loc 1 108 12
	ldr	r3, [sp, #4]
.L17:
	.loc 1 109 1 discriminator 1
	mov	r0, r3
	add	sp, sp, #36
.LCFI4:
	@ sp needed
	pop	{r4, r5, pc}
.L19:
	.align	2
.L18:
	.word	ef_err_port_cnt
	.word	on_ic_write_cnt
.LFE74:
	.size	write, .-write
	.section	.text.erase,"ax",%progbits
	.align	1
	.syntax unified
	.thumb
	.thumb_func
	.type	erase, %function
erase:
.LFB75:
	.loc 1 113 1
	@ args = 0, pretend = 0, frame = 48
	@ frame_needed = 0, uses_anonymous_args = 0
	push	{lr}
.LCFI5:
	sub	sp, sp, #52
.LCFI6:
	str	r0, [sp, #4]
	str	r1, [sp]
	.loc 1 114 39
	mov	r2, #134217728
	.loc 1 114 45
	ldr	r3, [sp, #4]
	.loc 1 114 14
	add	r3, r3, r2
	str	r3, [sp, #36]
	.loc 1 118 14
	movs	r3, #0
	str	r3, [sp, #28]
	.loc 1 120 17
	ldr	r3, [sp]
	lsrs	r3, r3, #11
	str	r3, [sp, #44]
	.loc 1 121 14
	ldr	r3, [sp]
	ubfx	r3, r3, #0, #11
	.loc 1 121 8
	cmp	r3, #0
	beq	.L21
	.loc 1 122 20
	ldr	r3, [sp, #44]
	adds	r3, r3, #1
	str	r3, [sp, #44]
.L21:
	.loc 1 126 33
	movs	r3, #0
	str	r3, [sp, #12]
	.loc 1 127 33
	movs	r3, #1
	str	r3, [sp, #24]
	.loc 1 128 5
	bl	HAL_FLASH_Unlock
	.loc 1 130 12
	movs	r3, #0
	str	r3, [sp, #40]
	.loc 1 130 5
	b	.L22
.L25:
	.loc 1 131 63
	ldr	r3, [sp, #40]
	lsls	r2, r3, #11
	.loc 1 131 44
	ldr	r3, [sp, #36]
	add	r3, r3, r2
	.loc 1 131 37
	str	r3, [sp, #20]
	.loc 1 132 24
	add	r2, sp, #28
	add	r3, sp, #12
	mov	r1, r2
	mov	r0, r3
	bl	HAL_FLASHEx_Erase
	mov	r3, r0
	strb	r3, [sp, #35]
	.loc 1 133 12
	ldrb	r3, [sp, #35]	@ zero_extendqisi2
	cmp	r3, #0
	beq	.L23
	.loc 1 134 13
	bl	HAL_FLASH_Lock
	.loc 1 135 20
	mov	r3, #-1
	b	.L26
.L23:
	.loc 1 139 13 discriminator 2
	bl	feed_dog
	.loc 1 130 35 discriminator 2
	ldr	r3, [sp, #40]
	adds	r3, r3, #1
	str	r3, [sp, #40]
.L22:
	.loc 1 130 5 discriminator 1
	ldr	r2, [sp, #40]
	ldr	r3, [sp, #44]
	cmp	r2, r3
	bcc	.L25
	.loc 1 142 5
	bl	HAL_FLASH_Lock
	.loc 1 144 12
	ldr	r3, [sp]
.L26:
	.loc 1 145 1 discriminator 1
	mov	r0, r3
	add	sp, sp, #52
.LCFI7:
	@ sp needed
	ldr	pc, [sp], #4
.LFE75:
	.size	erase, .-erase
	.global	stm32_onchip_flash
	.section	.rodata.stm32_onchip_flash,"a"
	.align	2
	.type	stm32_onchip_flash, %object
	.size	stm32_onchip_flash, 56
stm32_onchip_flash:
	.ascii	"stm32_onchip\000"
	.space	11
	.word	134217728
	.word	524288
	.word	2048
	.word	init
	.word	read
	.word	write
	.word	erase
	.word	32
	.section	.debug_frame,"",%progbits
.Lframe0:
	.4byte	.LECIE0-.LSCIE0
.LSCIE0:
	.4byte	0xffffffff
	.byte	0x3
	.ascii	"\000"
	.uleb128 0x1
	.sleb128 -4
	.uleb128 0xe
	.byte	0xc
	.uleb128 0xd
	.uleb128 0
	.align	2
.LECIE0:
.LSFDE0:
	.4byte	.LEFDE0-.LASFDE0
.LASFDE0:
	.4byte	.Lframe0
	.4byte	.LFB71
	.4byte	.LFE71-.LFB71
	.align	2
.LEFDE0:
.LSFDE2:
	.4byte	.LEFDE2-.LASFDE2
.LASFDE2:
	.4byte	.Lframe0
	.4byte	.LFB72
	.4byte	.LFE72-.LFB72
	.align	2
.LEFDE2:
.LSFDE4:
	.4byte	.LEFDE4-.LASFDE4
.LASFDE4:
	.4byte	.Lframe0
	.4byte	.LFB73
	.4byte	.LFE73-.LFB73
	.byte	0x4
	.4byte	.LCFI0-.LFB73
	.byte	0xe
	.uleb128 0x18
	.byte	0x4
	.4byte	.LCFI1-.LCFI0
	.byte	0xe
	.uleb128 0
	.align	2
.LEFDE4:
.LSFDE6:
	.4byte	.LEFDE6-.LASFDE6
.LASFDE6:
	.4byte	.Lframe0
	.4byte	.LFB74
	.4byte	.LFE74-.LFB74
	.byte	0x4
	.4byte	.LCFI2-.LFB74
	.byte	0xe
	.uleb128 0xc
	.byte	0x84
	.uleb128 0x3
	.byte	0x85
	.uleb128 0x2
	.byte	0x8e
	.uleb128 0x1
	.byte	0x4
	.4byte	.LCFI3-.LCFI2
	.byte	0xe
	.uleb128 0x30
	.byte	0x4
	.4byte	.LCFI4-.LCFI3
	.byte	0xe
	.uleb128 0xc
	.align	2
.LEFDE6:
.LSFDE8:
	.4byte	.LEFDE8-.LASFDE8
.LASFDE8:
	.4byte	.Lframe0
	.4byte	.LFB75
	.4byte	.LFE75-.LFB75
	.byte	0x4
	.4byte	.LCFI5-.LFB75
	.byte	0xe
	.uleb128 0x4
	.byte	0x8e
	.uleb128 0x1
	.byte	0x4
	.4byte	.LCFI6-.LCFI5
	.byte	0xe
	.uleb128 0x38
	.byte	0x4
	.4byte	.LCFI7-.LCFI6
	.byte	0xe
	.uleb128 0x4
	.align	2
.LEFDE8:
	.text
.Letext0:
	.file 2 "../Libraries/FlashDB/port/fal/inc/fal_def.h"
	.file 3 "D:/app/install/include/string.h"
	.file 4 "D:/app/install/include/stdint.h"
	.file 5 "../Libraries/stm32f1xx_hal_driver/Inc/stm32f1xx_hal_def.h"
	.file 6 "../Libraries/stm32f1xx_hal_driver/Inc/stm32f1xx_hal_flash_ex.h"
	.file 7 "../Src/flashdb/fal/fal_cfg.h"